target datalayout = "e-m:e-p270:32:32-p271:32:32-p272:64:64-i64:64-i128:128-f80:128-n8:16:32:64-S128"
target triple = "x86_64-pc-linux-gnu"

%"class.Ipopt::TripletToCSRConverter" = type { %"class.Ipopt::ReferencedObject.base", i32, i32, ptr, ptr, i32, i32, i32, i32, i8, ptr, ptr, ptr }
%"class.Ipopt::ReferencedObject.base" = type <{ ptr, i32 }>

; Function Attrs: mustprogress nounwind uwtable
define void @_ZN5Ipopt21TripletToCSRConverter13ConvertValuesEiPKdiPd(ptr noundef nonnull align 8 dereferenceable(88) %0, i32 noundef %1, ptr noundef %2, i32 noundef %3, ptr noundef %4) #1 align 2 {
  %6 = alloca ptr, align 8
  %7 = alloca i32, align 4
  %8 = alloca ptr, align 8
  %9 = alloca i32, align 4
  %10 = alloca ptr, align 8
  %11 = alloca i32, align 4
  %12 = alloca i32, align 4
  store ptr %0, ptr %6, align 8, !tbaa !3
  store i32 %1, ptr %7, align 4, !tbaa !8
  store ptr %2, ptr %8, align 8, !tbaa !70
  store i32 %3, ptr %9, align 4, !tbaa !8
  store ptr %4, ptr %10, align 8, !tbaa !70
  %13 = load ptr, ptr %6, align 8
  call void @llvm.lifetime.start.p0(i64 4, ptr %11) #14
  store i32 0, ptr %11, align 4, !tbaa !8
  br label %14

14:                                               ; preds = %35, %5
  %15 = load i32, ptr %11, align 4, !tbaa !8
  %16 = getelementptr inbounds nuw %"class.Ipopt::TripletToCSRConverter", ptr %13, i32 0, i32 7
  %17 = load i32, ptr %16, align 8, !tbaa !24
  %18 = icmp slt i32 %15, %17
  br i1 %18, label %20, label %19

19:                                               ; preds = %14
  call void @llvm.lifetime.end.p0(i64 4, ptr %11) #14
  br label %38

20:                                               ; preds = %14
  %21 = load ptr, ptr %8, align 8, !tbaa !70
  %22 = getelementptr inbounds nuw %"class.Ipopt::TripletToCSRConverter", ptr %13, i32 0, i32 10
  %23 = load ptr, ptr %22, align 8, !tbaa !26
  %24 = load i32, ptr %11, align 4, !tbaa !8
  %25 = sext i32 %24 to i64
  %26 = getelementptr inbounds i32, ptr %23, i64 %25
  %27 = load i32, ptr %26, align 4, !tbaa !8
  %28 = sext i32 %27 to i64
  %29 = getelementptr inbounds double, ptr %21, i64 %28
  %30 = load double, ptr %29, align 8, !tbaa !72
  %31 = load ptr, ptr %10, align 8, !tbaa !70
  %32 = load i32, ptr %11, align 4, !tbaa !8
  %33 = sext i32 %32 to i64
  %34 = getelementptr inbounds double, ptr %31, i64 %33
  store double %30, ptr %34, align 8, !tbaa !72
  br label %35

35:                                               ; preds = %20
  %36 = load i32, ptr %11, align 4, !tbaa !8
  %37 = add nsw i32 %36, 1
  store i32 %37, ptr %11, align 4, !tbaa !8
  br label %14, !llvm.loop !74

38:                                               ; preds = %19
  call void @llvm.lifetime.start.p0(i64 4, ptr %12) #14
  store i32 0, ptr %12, align 4, !tbaa !8
  br label %39

39:                                               ; preds = %67, %38
  %40 = load i32, ptr %12, align 4, !tbaa !8
  %41 = getelementptr inbounds nuw %"class.Ipopt::TripletToCSRConverter", ptr %13, i32 0, i32 8
  %42 = load i32, ptr %41, align 4, !tbaa !33
  %43 = icmp slt i32 %40, %42
  br i1 %43, label %45, label %44

44:                                               ; preds = %39
  call void @llvm.lifetime.end.p0(i64 4, ptr %12) #14
  br label %70

45:                                               ; preds = %39
  %46 = load ptr, ptr %8, align 8, !tbaa !70
  %47 = getelementptr inbounds nuw %"class.Ipopt::TripletToCSRConverter", ptr %13, i32 0, i32 11
  %48 = load ptr, ptr %47, align 8, !tbaa !27
  %49 = load i32, ptr %12, align 4, !tbaa !8
  %50 = sext i32 %49 to i64
  %51 = getelementptr inbounds i32, ptr %48, i64 %50
  %52 = load i32, ptr %51, align 4, !tbaa !8
  %53 = sext i32 %52 to i64
  %54 = getelementptr inbounds double, ptr %46, i64 %53
  %55 = load double, ptr %54, align 8, !tbaa !72
  %56 = load ptr, ptr %10, align 8, !tbaa !70
  %57 = getelementptr inbounds nuw %"class.Ipopt::TripletToCSRConverter", ptr %13, i32 0, i32 12
  %58 = load ptr, ptr %57, align 8, !tbaa !28
  %59 = load i32, ptr %12, align 4, !tbaa !8
  %60 = sext i32 %59 to i64
  %61 = getelementptr inbounds i32, ptr %58, i64 %60
  %62 = load i32, ptr %61, align 4, !tbaa !8
  %63 = sext i32 %62 to i64
  %64 = getelementptr inbounds double, ptr %56, i64 %63
  %65 = load double, ptr %64, align 8, !tbaa !72
  %66 = fadd double %65, %55
  store double %66, ptr %64, align 8, !tbaa !72
  br label %67

67:                                               ; preds = %45
  %68 = load i32, ptr %12, align 4, !tbaa !8
  %69 = add nsw i32 %68, 1
  store i32 %69, ptr %12, align 4, !tbaa !8
  br label %39, !llvm.loop !75

70:                                               ; preds = %44
  ret void
}