; Function Attrs: mustprogress nofree norecurse nosync nounwind memory(read, argmem: readwrite, inaccessiblemem: none) uwtable
define void @_ZN5Ipopt21TripletToCSRConverter13ConvertValuesEiPKdiPd(ptr noundef nonnull readonly align 8 captures(none) dereferenceable(88) %0, i32 noundef %1, ptr noundef readonly captures(none) %2, i32 noundef %3, ptr noundef captures(none) %4) local_unnamed_addr #7 align 2 {
  %6 = getelementptr inbounds nuw i8, ptr %0, i64 48
  %7 = load i32, ptr %6, align 8, !tbaa !25
  %8 = icmp sgt i32 %7, 0
  br i1 %8, label %.lr.ph, label %.preheader

.lr.ph:                                           ; preds = %5
  %9 = getelementptr inbounds nuw i8, ptr %0, i64 64
  %10 = load ptr, ptr %9, align 8, !tbaa !20
  %wide.trip.count = zext nneg i32 %7 to i64
  br label %18

.preheader:                                       ; preds = %18, %5
  %11 = getelementptr inbounds nuw i8, ptr %0, i64 52
  %12 = load i32, ptr %11, align 4, !tbaa !26
  %13 = icmp sgt i32 %12, 0
  br i1 %13, label %.lr.ph15, label %._crit_edge

.lr.ph15:                                         ; preds = %.preheader
  %14 = getelementptr inbounds nuw i8, ptr %0, i64 72
  %15 = load ptr, ptr %14, align 8, !tbaa !21
  %16 = getelementptr inbounds nuw i8, ptr %0, i64 80
  %17 = load ptr, ptr %16, align 8, !tbaa !22
  %wide.trip.count20 = zext nneg i32 %12 to i64
  br label %25

18:                                               ; preds = %.lr.ph, %18
  %indvars.iv = phi i64 [ 0, %.lr.ph ], [ %indvars.iv.next, %18 ]
  %19 = getelementptr inbounds nuw i32, ptr %10, i64 %indvars.iv
  %20 = load i32, ptr %19, align 4, !tbaa !28
  %21 = sext i32 %20 to i64
  %22 = getelementptr inbounds double, ptr %2, i64 %21
  %23 = load double, ptr %22, align 8, !tbaa !45
  %24 = getelementptr inbounds nuw double, ptr %4, i64 %indvars.iv
  store double %23, ptr %24, align 8, !tbaa !45
  %indvars.iv.next = add nuw nsw i64 %indvars.iv, 1
  %exitcond.not = icmp eq i64 %indvars.iv.next, %wide.trip.count
  br i1 %exitcond.not, label %.preheader, label %18, !llvm.loop !47

._crit_edge:                                      ; preds = %25, %.preheader
  ret void

25:                                               ; preds = %.lr.ph15, %25
  %indvars.iv17 = phi i64 [ 0, %.lr.ph15 ], [ %indvars.iv.next18, %25 ]
  %26 = getelementptr inbounds nuw i32, ptr %15, i64 %indvars.iv17
  %27 = load i32, ptr %26, align 4, !tbaa !28
  %28 = sext i32 %27 to i64
  %29 = getelementptr inbounds double, ptr %2, i64 %28
  %30 = load double, ptr %29, align 8, !tbaa !45
  %31 = getelementptr inbounds nuw i32, ptr %17, i64 %indvars.iv17
  %32 = load i32, ptr %31, align 4, !tbaa !28
  %33 = sext i32 %32 to i64
  %34 = getelementptr inbounds double, ptr %4, i64 %33
  %35 = load double, ptr %34, align 8, !tbaa !45
  %36 = fadd double %30, %35
  store double %36, ptr %34, align 8, !tbaa !45
  %indvars.iv.next18 = add nuw nsw i64 %indvars.iv17, 1
  %exitcond21.not = icmp eq i64 %indvars.iv.next18, %wide.trip.count20
  br i1 %exitcond21.not, label %._crit_edge, label %25, !llvm.loop !48
}